target datalayout = "e-m:e-p270:32:32-p271:32:32-p272:64:64-i64:64-i128:128-f80:128-n8:16:32:64-S128"
target triple = "x86_64-pc-linux-gnu"

%"class.icu_77::UObject" = type { ptr }
%"class.icu_77::ParsePosition" = type { %"class.icu_77::UObject", i32, i32 }
%"class.icu_77::UnicodeString" = type { %"class.icu_77::Replaceable", %"union.icu_77::UnicodeString::StackBufferOrFields" }
%"class.icu_77::Replaceable" = type { %"class.icu_77::UObject" }
%"union.icu_77::UnicodeString::StackBufferOrFields" = type { %struct.anon.0, [32 x i8] }
%struct.anon.0 = type { i16, i32, i32, ptr }

@_ZTVN6icu_777UObjectE = available_externally unnamed_addr constant { [5 x ptr] } { [5 x ptr] [ptr null, ptr @_ZTIN6icu_777UObjectE, ptr @_ZN6icu_777UObjectD1Ev, ptr @_ZN6icu_777UObjectD0Ev, ptr @_ZNK6icu_777UObject17getDynamicClassIDEv] }, align 8
@_ZTVN6icu_7713ParsePositionE = available_externally unnamed_addr constant { [5 x ptr] } { [5 x ptr] [ptr null, ptr @_ZTIN6icu_7713ParsePositionE, ptr @_ZN6icu_7713ParsePositionD1Ev, ptr @_ZN6icu_7713ParsePositionD0Ev, ptr @_ZNK6icu_7713ParsePosition17getDynamicClassIDEv] }, align 8

; Function Attrs: inlinehint mustprogress nounwind uwtable
define linkonce_odr noundef i32 @_ZNK6icu_7713UnicodeString14getShortLengthEv(ptr noundef nonnull align 8 dereferenceable(64) %0) #2 comdat align 2 {
  %2 = alloca ptr, align 8
  store ptr %0, ptr %2, align 8, !tbaa !25
  %3 = load ptr, ptr %2, align 8
  %4 = getelementptr inbounds nuw %"class.icu_77::UnicodeString", ptr %3, i32 0, i32 1
  %5 = getelementptr inbounds nuw %struct.anon.0, ptr %4, i32 0, i32 0
  %6 = load i16, ptr %5, align 8, !tbaa !55
  %7 = sext i16 %6 to i32
  %8 = ashr i32 %7, 5
  ret i32 %8
}

; Function Attrs: inlinehint mustprogress nounwind uwtable
define linkonce_odr noundef signext i8 @_ZNK6icu_7713UnicodeString14hasShortLengthEv(ptr noundef nonnull align 8 dereferenceable(64) %0) #2 comdat align 2 {
  %2 = alloca ptr, align 8
  store ptr %0, ptr %2, align 8, !tbaa !25
  %3 = load ptr, ptr %2, align 8
  %4 = getelementptr inbounds nuw %"class.icu_77::UnicodeString", ptr %3, i32 0, i32 1
  %5 = getelementptr inbounds nuw %struct.anon.0, ptr %4, i32 0, i32 0
  %6 = load i16, ptr %5, align 8, !tbaa !55
  %7 = sext i16 %6 to i32
  %8 = icmp sge i32 %7, 0
  %9 = zext i1 %8 to i8
  ret i8 %9
}

; Function Attrs: inlinehint mustprogress nounwind uwtable
define linkonce_odr void @_ZN6icu_777UObjectC2Ev(ptr noundef nonnull align 8 dereferenceable(8) %0) unnamed_addr #2 comdat align 2 {
  %2 = alloca ptr, align 8
  store ptr %0, ptr %2, align 8, !tbaa !103
  %3 = load ptr, ptr %2, align 8
  store ptr getelementptr inbounds inrange(-16, 24) ({ [5 x ptr] }, ptr @_ZTVN6icu_777UObjectE, i32 0, i32 0, i32 2), ptr %3, align 8, !tbaa !29
  ret void
}

; Function Attrs: inlinehint mustprogress uwtable
define linkonce_odr noundef i32 @_ZNK6icu_7713UnicodeString6lengthEv(ptr noundef nonnull align 8 dereferenceable(64) %0) #3 comdat align 2 {
  %2 = alloca ptr, align 8
  store ptr %0, ptr %2, align 8, !tbaa !25
  %3 = load ptr, ptr %2, align 8
  %4 = call noundef signext i8 @_ZNK6icu_7713UnicodeString14hasShortLengthEv(ptr noundef nonnull align 8 dereferenceable(64) %3)
  %5 = icmp ne i8 %4, 0
  br i1 %5, label %6, label %8

6:                                                ; preds = %1
  %7 = call noundef i32 @_ZNK6icu_7713UnicodeString14getShortLengthEv(ptr noundef nonnull align 8 dereferenceable(64) %3)
  br label %12

8:                                                ; preds = %1
  %9 = getelementptr inbounds nuw %"class.icu_77::UnicodeString", ptr %3, i32 0, i32 1
  %10 = getelementptr inbounds nuw %struct.anon.0, ptr %9, i32 0, i32 1
  %11 = load i32, ptr %10, align 4, !tbaa !55
  br label %12

12:                                               ; preds = %8, %6
  %13 = phi i32 [ %7, %6 ], [ %11, %8 ]
  ret i32 %13
}

; Function Attrs: inlinehint mustprogress nounwind uwtable
define linkonce_odr noundef i32 @_ZNK6icu_7713ParsePosition8getIndexEv(ptr noundef nonnull align 8 dereferenceable(16) %0) #2 comdat align 2 {
  %2 = alloca ptr, align 8
  store ptr %0, ptr %2, align 8, !tbaa !53
  %3 = load ptr, ptr %2, align 8
  %4 = getelementptr inbounds nuw %"class.icu_77::ParsePosition", ptr %3, i32 0, i32 1
  %5 = load i32, ptr %4, align 8, !tbaa !56
  ret i32 %5
}

; Function Attrs: inlinehint mustprogress nounwind uwtable
define internal noundef signext i8 @_ZL9U_FAILURE10UErrorCode(i32 noundef %0) #2 {
  %2 = alloca i32, align 4
  store i32 %0, ptr %2, align 4, !tbaa !15
  %3 = load i32, ptr %2, align 4, !tbaa !15
  %4 = icmp sgt i32 %3, 0
  %5 = zext i1 %4 to i8
  ret i8 %5
}

; Function Attrs: mustprogress nounwind uwtable
define linkonce_odr void @_ZN6icu_7713ParsePositionC2Ei(ptr noundef nonnull align 8 dereferenceable(16) %0, i32 noundef %1) unnamed_addr #0 comdat align 2 {
  %3 = alloca ptr, align 8
  %4 = alloca i32, align 4
  store ptr %0, ptr %3, align 8, !tbaa !53
  store i32 %1, ptr %4, align 4, !tbaa !14
  %5 = load ptr, ptr %3, align 8
  %6 = getelementptr inbounds i8, ptr %5, i64 0
  call void @llvm.memset.p0.i64(ptr align 8 %6, i8 0, i64 8, i1 false)
  call void @_ZN6icu_777UObjectC2Ev(ptr noundef nonnull align 8 dereferenceable(8) %5) #13
  store ptr getelementptr inbounds inrange(-16, 24) ({ [5 x ptr] }, ptr @_ZTVN6icu_7713ParsePositionE, i32 0, i32 0, i32 2), ptr %5, align 8, !tbaa !29
  %7 = getelementptr inbounds nuw %"class.icu_77::ParsePosition", ptr %5, i32 0, i32 1
  %8 = load i32, ptr %4, align 4, !tbaa !14
  store i32 %8, ptr %7, align 8, !tbaa !56
  %9 = getelementptr inbounds nuw %"class.icu_77::ParsePosition", ptr %5, i32 0, i32 2
  store i32 -1, ptr %9, align 4, !tbaa !58
  ret void
}

; Function Attrs: mustprogress uwtable
define noundef nonnull align 8 dereferenceable(200) ptr @_ZN6icu_7710UnicodeSet12applyPatternERKNS_13UnicodeStringEjPKNS_11SymbolTableER10UErrorCode(ptr noundef nonnull align 8 dereferenceable(200) %0, ptr noundef nonnull align 8 dereferenceable(64) %1, i32 noundef %2, ptr noundef %3, ptr noundef nonnull align 4 dereferenceable(4) %4) #1 align 2 personality ptr @__gxx_personality_v0 {
  %6 = alloca ptr, align 8
  %7 = alloca ptr, align 8
  %8 = alloca ptr, align 8
  %9 = alloca i32, align 4
  %10 = alloca ptr, align 8
  %11 = alloca ptr, align 8
  %12 = alloca %"class.icu_77::ParsePosition", align 8
  %13 = alloca ptr, align 8
  %14 = alloca i32, align 4
  %15 = alloca i32, align 4
  %16 = alloca i32, align 4
  store ptr %0, ptr %7, align 8, !tbaa !23
  store ptr %1, ptr %8, align 8, !tbaa !25
  store i32 %2, ptr %9, align 4, !tbaa !14
  store ptr %3, ptr %10, align 8, !tbaa !27
  store ptr %4, ptr %11, align 8, !tbaa !22
  %17 = load ptr, ptr %7, align 8
  call void @llvm.lifetime.start.p0(i64 16, ptr %12) #13
  call void @_ZN6icu_7713ParsePositionC2Ei(ptr noundef nonnull align 8 dereferenceable(16) %12, i32 noundef 0)
  %18 = load ptr, ptr %8, align 8, !tbaa !25
  %19 = load i32, ptr %9, align 4, !tbaa !14
  %20 = load ptr, ptr %10, align 8, !tbaa !27
  %21 = load ptr, ptr %11, align 8, !tbaa !22
  %22 = invoke noundef nonnull align 8 dereferenceable(200) ptr @_ZN6icu_7710UnicodeSet12applyPatternERKNS_13UnicodeStringERNS_13ParsePositionEjPKNS_11SymbolTableER10UErrorCode(ptr noundef nonnull align 8 dereferenceable(200) %17, ptr noundef nonnull align 8 dereferenceable(64) %18, ptr noundef nonnull align 8 dereferenceable(16) %12, i32 noundef %19, ptr noundef %20, ptr noundef nonnull align 4 dereferenceable(4) %21)
          to label %23 unwind label %30

23:                                               ; preds = %5
  %24 = load ptr, ptr %11, align 8, !tbaa !22
  %25 = load i32, ptr %24, align 4, !tbaa !15
  %26 = invoke noundef signext i8 @_ZL9U_FAILURE10UErrorCode(i32 noundef %25)
          to label %27 unwind label %30

27:                                               ; preds = %23
  %28 = icmp ne i8 %26, 0
  br i1 %28, label %29, label %34

29:                                               ; preds = %27
  store ptr %17, ptr %6, align 8
  store i32 1, ptr %15, align 4
  br label %57

30:                                               ; preds = %23, %5
  %31 = landingpad { ptr, i32 }
          cleanup
  %32 = extractvalue { ptr, i32 } %31, 0
  store ptr %32, ptr %13, align 8
  %33 = extractvalue { ptr, i32 } %31, 1
  store i32 %33, ptr %14, align 4
  br label %59

34:                                               ; preds = %27
  call void @llvm.lifetime.start.p0(i64 4, ptr %16) #13
  %35 = invoke noundef i32 @_ZNK6icu_7713ParsePosition8getIndexEv(ptr noundef nonnull align 8 dereferenceable(16) %12)
          to label %36 unwind label %44

36:                                               ; preds = %34
  store i32 %35, ptr %16, align 4, !tbaa !14
  %37 = load i32, ptr %9, align 4, !tbaa !14
  %38 = and i32 %37, 1
  %39 = icmp ne i32 %38, 0
  br i1 %39, label %40, label %48

40:                                               ; preds = %36
  %41 = load ptr, ptr %8, align 8, !tbaa !25
  %42 = invoke noundef i32 @_ZN6icu_7711ICU_Utility14skipWhitespaceERKNS_13UnicodeStringERia(ptr noundef nonnull align 8 dereferenceable(64) %41, ptr noundef nonnull align 4 dereferenceable(4) %16, i8 noundef signext 1)
          to label %43 unwind label %44

43:                                               ; preds = %40
  br label %48

44:                                               ; preds = %48, %40, %34
  %45 = landingpad { ptr, i32 }
          cleanup
  %46 = extractvalue { ptr, i32 } %45, 0
  store ptr %46, ptr %13, align 8
  %47 = extractvalue { ptr, i32 } %45, 1
  store i32 %47, ptr %14, align 4
  call void @llvm.lifetime.end.p0(i64 4, ptr %16) #13
  br label %59

48:                                               ; preds = %43, %36
  %49 = load i32, ptr %16, align 4, !tbaa !14
  %50 = load ptr, ptr %8, align 8, !tbaa !25
  %51 = invoke noundef i32 @_ZNK6icu_7713UnicodeString6lengthEv(ptr noundef nonnull align 8 dereferenceable(64) %50)
          to label %52 unwind label %44

52:                                               ; preds = %48
  %53 = icmp ne i32 %49, %51
  br i1 %53, label %54, label %56

54:                                               ; preds = %52
  %55 = load ptr, ptr %11, align 8, !tbaa !22
  store i32 1, ptr %55, align 4, !tbaa !15
  br label %56

56:                                               ; preds = %54, %52
  store ptr %17, ptr %6, align 8
  store i32 1, ptr %15, align 4
  call void @llvm.lifetime.end.p0(i64 4, ptr %16) #13
  br label %57

57:                                               ; preds = %56, %29
  call void @_ZN6icu_7713ParsePositionD1Ev(ptr noundef nonnull align 8 dereferenceable(16) %12) #13
  call void @llvm.lifetime.end.p0(i64 16, ptr %12) #13
  %58 = load ptr, ptr %6, align 8
  ret ptr %58

59:                                               ; preds = %44, %30
  call void @_ZN6icu_7713ParsePositionD1Ev(ptr noundef nonnull align 8 dereferenceable(16) %12) #13
  call void @llvm.lifetime.end.p0(i64 16, ptr %12) #13
  br label %60

60:                                               ; preds = %59
  %61 = load ptr, ptr %13, align 8
  %62 = load i32, ptr %14, align 4
  %63 = insertvalue { ptr, i32 } poison, ptr %61, 0
  %64 = insertvalue { ptr, i32 } %63, i32 %62, 1
  resume { ptr, i32 } %64
}