; Function Attrs: mustprogress uwtable
define noundef nonnull align 8 dereferenceable(200) ptr @_ZN6icu_7710UnicodeSet12applyPatternERKNS_13UnicodeStringEjPKNS_11SymbolTableER10UErrorCode(ptr noundef nonnull returned align 8 dereferenceable(200) %0, ptr noundef nonnull align 8 dereferenceable(64) %1, i32 noundef %2, ptr noundef %3, ptr noundef nonnull align 4 dereferenceable(4) %4) local_unnamed_addr #1 align 2 personality ptr @__gxx_personality_v0 {
  %6 = alloca %"class.icu_77::ParsePosition", align 8
  %7 = alloca i32, align 4
  call void @llvm.lifetime.start.p0(i64 16, ptr nonnull %6) #13
  store ptr getelementptr inbounds nuw inrange(-16, 24) (i8, ptr @_ZTVN6icu_7713ParsePositionE, i64 16), ptr %6, align 8, !tbaa !15
  %8 = getelementptr inbounds nuw i8, ptr %6, i64 8
  store i32 0, ptr %8, align 8, !tbaa !33
  %9 = getelementptr inbounds nuw i8, ptr %6, i64 12
  store i32 -1, ptr %9, align 4, !tbaa !35
  %10 = invoke noundef nonnull align 8 dereferenceable(200) ptr @_ZN6icu_7710UnicodeSet12applyPatternERKNS_13UnicodeStringERNS_13ParsePositionEjPKNS_11SymbolTableER10UErrorCode(ptr noundef nonnull align 8 dereferenceable(200) %0, ptr noundef nonnull align 8 dereferenceable(64) %1, ptr noundef nonnull align 8 dereferenceable(16) %6, i32 noundef %2, ptr noundef %3, ptr noundef nonnull align 4 dereferenceable(4) %4)
          to label %11 unwind label %14

11:                                               ; preds = %5
  %12 = load i32, ptr %4, align 4, !tbaa !13
  %13 = icmp slt i32 %12, 1
  br i1 %13, label %16, label %35

14:                                               ; preds = %5
  %15 = landingpad { ptr, i32 }
          cleanup
  br label %36

16:                                               ; preds = %11
  call void @llvm.lifetime.start.p0(i64 4, ptr nonnull %7) #13
  %17 = load i32, ptr %8, align 8, !tbaa !33
  store i32 %17, ptr %7, align 4, !tbaa !12
  %18 = and i32 %2, 1
  %.not14 = icmp eq i32 %18, 0
  br i1 %.not14, label %23, label %19

19:                                               ; preds = %16
  %20 = invoke noundef i32 @_ZN6icu_7711ICU_Utility14skipWhitespaceERKNS_13UnicodeStringERia(ptr noundef nonnull align 8 dereferenceable(64) %1, ptr noundef nonnull align 4 dereferenceable(4) %7, i8 noundef signext 1)
          to label %._crit_edge unwind label %21

._crit_edge:                                      ; preds = %19
  %.pre = load i32, ptr %7, align 4, !tbaa !12
  br label %23

21:                                               ; preds = %19
  %22 = landingpad { ptr, i32 }
          cleanup
  call void @llvm.lifetime.end.p0(i64 4, ptr nonnull %7) #13
  br label %36

23:                                               ; preds = %._crit_edge, %16
  %24 = phi i32 [ %.pre, %._crit_edge ], [ %17, %16 ]
  %25 = getelementptr inbounds nuw i8, ptr %1, i64 8
  %26 = load i16, ptr %25, align 8, !tbaa !36
  %27 = icmp slt i16 %26, 0
  %28 = ashr i16 %26, 5
  %29 = sext i16 %28 to i32
  %30 = getelementptr inbounds nuw i8, ptr %1, i64 12
  %31 = load i32, ptr %30, align 4
  %32 = select i1 %27, i32 %31, i32 %29
  %.not16 = icmp eq i32 %24, %32
  br i1 %.not16, label %34, label %33

33:                                               ; preds = %23
  store i32 1, ptr %4, align 4, !tbaa !13
  br label %34

34:                                               ; preds = %33, %23
  call void @llvm.lifetime.end.p0(i64 4, ptr nonnull %7) #13
  br label %35

35:                                               ; preds = %11, %34
  call void @_ZN6icu_7713ParsePositionD1Ev(ptr noundef nonnull align 8 dereferenceable(16) %6) #13
  call void @llvm.lifetime.end.p0(i64 16, ptr nonnull %6) #13
  ret ptr %0

36:                                               ; preds = %21, %14
  %.pn = phi { ptr, i32 } [ %22, %21 ], [ %15, %14 ]
  call void @_ZN6icu_7713ParsePositionD1Ev(ptr noundef nonnull align 8 dereferenceable(16) %6) #13
  call void @llvm.lifetime.end.p0(i64 16, ptr nonnull %6) #13
  resume { ptr, i32 } %.pn
}